; Function Attrs: mustprogress uwtable
define noundef nonnull align 8 dereferenceable(24) ptr @_ZN5boost4json5valueaSEONS0_6stringE(ptr noundef nonnull returned align 8 dereferenceable(24) %0, ptr noundef nonnull align 8 dereferenceable(24) %1) local_unnamed_addr #5 align 2 personality ptr @__gxx_personality_v0 {
  %3 = alloca %"class.boost::json::storage_ptr", align 8
  %4 = alloca %"class.boost::json::value", align 8
  call void @llvm.lifetime.start.p0(i64 24, ptr nonnull %4) #48
  %5 = load i64, ptr %0, align 8, !tbaa !17
  %6 = and i64 %5, 1
  %.not.i.i = icmp eq i64 %6, 0
  br i1 %.not.i.i, label %_ZN5boost4json11storage_ptrC2ERKS1_.exit, label %7

7:                                                ; preds = %2
  %8 = and i64 %5, -4
  %9 = inttoptr i64 %8 to ptr
  %10 = getelementptr inbounds nuw i8, ptr %9, i64 8
  %11 = atomicrmw add ptr %10, i64 1 monotonic, align 8
  br label %_ZN5boost4json11storage_ptrC2ERKS1_.exit

_ZN5boost4json11storage_ptrC2ERKS1_.exit:         ; preds = %2, %7
  call void @llvm.lifetime.start.p0(i64 8, ptr nonnull %3)
  store i64 %5, ptr %3, align 8, !tbaa !17
  invoke void @_ZN5boost4json6stringC1EOS1_NS0_11storage_ptrE(ptr noundef nonnull align 8 dereferenceable(24) %4, ptr noundef nonnull align 8 dereferenceable(24) %1, ptr noundef nonnull %3)
          to label %12 unwind label %26

12:                                               ; preds = %_ZN5boost4json11storage_ptrC2ERKS1_.exit
  %13 = load i64, ptr %3, align 8, !tbaa !17
  %14 = and i64 %13, 1
  %.not.i.i.i = icmp eq i64 %14, 0
  br i1 %.not.i.i.i, label %41, label %15

15:                                               ; preds = %12
  %16 = and i64 %13, -4
  %17 = inttoptr i64 %16 to ptr
  %18 = getelementptr inbounds nuw i8, ptr %17, i64 8
  %19 = atomicrmw sub ptr %18, i64 1 acq_rel, align 8
  %20 = icmp ne i64 %19, 1
  %21 = icmp eq i64 %16, 0
  %or.cond.i.i.i = or i1 %21, %20
  br i1 %or.cond.i.i.i, label %41, label %22

22:                                               ; preds = %15
  %23 = load ptr, ptr %17, align 8, !tbaa !19
  %24 = getelementptr inbounds i8, ptr %23, i64 8
  %25 = load ptr, ptr %24, align 8
  call void %25(ptr noundef nonnull align 8 dereferenceable(16) %17) #48
  br label %41

26:                                               ; preds = %_ZN5boost4json11storage_ptrC2ERKS1_.exit
  %27 = landingpad { ptr, i32 }
          cleanup
  %28 = load i64, ptr %3, align 8, !tbaa !17
  %29 = and i64 %28, 1
  %.not.i.i3.i = icmp eq i64 %29, 0
  br i1 %.not.i.i3.i, label %_ZN5boost4json11storage_ptrD2Ev.exit8, label %30

30:                                               ; preds = %26
  %31 = and i64 %28, -4
  %32 = inttoptr i64 %31 to ptr
  %33 = getelementptr inbounds nuw i8, ptr %32, i64 8
  %34 = atomicrmw sub ptr %33, i64 1 acq_rel, align 8
  %35 = icmp ne i64 %34, 1
  %36 = icmp eq i64 %31, 0
  %or.cond.i.i4.i = or i1 %36, %35
  br i1 %or.cond.i.i4.i, label %_ZN5boost4json11storage_ptrD2Ev.exit8, label %37

37:                                               ; preds = %30
  %38 = load ptr, ptr %32, align 8, !tbaa !19
  %39 = getelementptr inbounds i8, ptr %38, i64 8
  %40 = load ptr, ptr %39, align 8
  call void %40(ptr noundef nonnull align 8 dereferenceable(16) %32) #48
  br label %_ZN5boost4json11storage_ptrD2Ev.exit8

41:                                               ; preds = %22, %15, %12
  call void @llvm.lifetime.end.p0(i64 8, ptr nonnull %3)
  invoke void @_ZN5boost4json5value4swapERS1_(ptr noundef nonnull align 8 dereferenceable(24) %4, ptr noundef nonnull align 8 dereferenceable(24) %0)
          to label %_ZN5boost4json11storage_ptrD2Ev.exit unwind label %42

_ZN5boost4json11storage_ptrD2Ev.exit:             ; preds = %41
  call void @_ZN5boost4json5valueD1Ev(ptr noundef nonnull align 8 dereferenceable(24) %4) #48
  call void @llvm.lifetime.end.p0(i64 24, ptr nonnull %4) #48
  ret ptr %0

42:                                               ; preds = %41
  %43 = landingpad { ptr, i32 }
          cleanup
  call void @_ZN5boost4json5valueD1Ev(ptr noundef nonnull align 8 dereferenceable(24) %4) #48
  br label %_ZN5boost4json11storage_ptrD2Ev.exit8

_ZN5boost4json11storage_ptrD2Ev.exit8:            ; preds = %42, %26, %30, %37
  %.pn = phi { ptr, i32 } [ %43, %42 ], [ %27, %37 ], [ %27, %30 ], [ %27, %26 ]
  call void @llvm.lifetime.end.p0(i64 24, ptr nonnull %4) #48
  resume { ptr, i32 } %.pn
}